target datalayout = "e-m:e-p270:32:32-p271:32:32-p272:64:64-i64:64-i128:128-f80:128-n8:16:32:64-S128"
target triple = "x86_64-pc-linux-gnu"

; Function Attrs: alwaysinline nounwind willreturn memory(none) uwtable
define internal i32 @av_clip_c(i32 noundef %0, i32 noundef %1, i32 noundef %2) #8 {
  %4 = alloca i32, align 4
  %5 = alloca i32, align 4
  %6 = alloca i32, align 4
  %7 = alloca i32, align 4
  store i32 %0, ptr %5, align 4, !tbaa !11
  store i32 %1, ptr %6, align 4, !tbaa !11
  store i32 %2, ptr %7, align 4, !tbaa !11
  %8 = load i32, ptr %5, align 4, !tbaa !11
  %9 = load i32, ptr %6, align 4, !tbaa !11
  %10 = icmp slt i32 %8, %9
  br i1 %10, label %11, label %13

11:                                               ; preds = %3
  %12 = load i32, ptr %6, align 4, !tbaa !11
  store i32 %12, ptr %4, align 4
  br label %21

13:                                               ; preds = %3
  %14 = load i32, ptr %5, align 4, !tbaa !11
  %15 = load i32, ptr %7, align 4, !tbaa !11
  %16 = icmp sgt i32 %14, %15
  br i1 %16, label %17, label %19

17:                                               ; preds = %13
  %18 = load i32, ptr %7, align 4, !tbaa !11
  store i32 %18, ptr %4, align 4
  br label %21

19:                                               ; preds = %13
  %20 = load i32, ptr %5, align 4, !tbaa !11
  store i32 %20, ptr %4, align 4
  br label %21

21:                                               ; preds = %19, %17, %11
  %22 = load i32, ptr %4, align 4
  ret i32 %22
}

; Function Attrs: nounwind uwtable
define internal void @filter16_row(ptr noundef %0, i32 noundef %1, float noundef %2, float noundef %3, ptr noundef %4, ptr noundef %5, i32 noundef %6, i32 noundef %7, i32 noundef %8, i32 noundef %9, i32 noundef %10) #0 {
  %12 = alloca ptr, align 8
  %13 = alloca i32, align 4
  %14 = alloca float, align 4
  %15 = alloca float, align 4
  %16 = alloca ptr, align 8
  %17 = alloca ptr, align 8
  %18 = alloca i32, align 4
  %19 = alloca i32, align 4
  %20 = alloca i32, align 4
  %21 = alloca i32, align 4
  %22 = alloca i32, align 4
  %23 = alloca ptr, align 8
  %24 = alloca i32, align 4
  %25 = alloca i32, align 4
  %26 = alloca i32, align 4
  store ptr %0, ptr %12, align 8, !tbaa !9
  store i32 %1, ptr %13, align 4, !tbaa !11
  store float %2, ptr %14, align 4, !tbaa !52
  store float %3, ptr %15, align 4, !tbaa !52
  store ptr %4, ptr %16, align 8, !tbaa !53
  store ptr %5, ptr %17, align 8, !tbaa !89
  store i32 %6, ptr %18, align 4, !tbaa !11
  store i32 %7, ptr %19, align 4, !tbaa !11
  store i32 %8, ptr %20, align 4, !tbaa !11
  store i32 %9, ptr %21, align 4, !tbaa !11
  store i32 %10, ptr %22, align 4, !tbaa !11
  call void @llvm.lifetime.start.p0(i64 8, ptr %23) #10
  %27 = load ptr, ptr %12, align 8, !tbaa !9
  store ptr %27, ptr %23, align 8, !tbaa !114
  call void @llvm.lifetime.start.p0(i64 4, ptr %24) #10
  store i32 0, ptr %24, align 4, !tbaa !11
  br label %28

28:                                               ; preds = %78, %11
  %29 = load i32, ptr %24, align 4, !tbaa !11
  %30 = load i32, ptr %13, align 4, !tbaa !11
  %31 = icmp slt i32 %29, %30
  br i1 %31, label %32, label %81

32:                                               ; preds = %28
  call void @llvm.lifetime.start.p0(i64 4, ptr %25) #10
  call void @llvm.lifetime.start.p0(i64 4, ptr %26) #10
  store i32 0, ptr %26, align 4, !tbaa !11
  store i32 0, ptr %25, align 4, !tbaa !11
  br label %33

33:                                               ; preds = %59, %32
  %34 = load i32, ptr %25, align 4, !tbaa !11
  %35 = load i32, ptr %19, align 4, !tbaa !11
  %36 = mul nsw i32 2, %35
  %37 = add nsw i32 %36, 1
  %38 = icmp slt i32 %34, %37
  br i1 %38, label %39, label %62

39:                                               ; preds = %33
  %40 = load ptr, ptr %17, align 8, !tbaa !89
  %41 = load i32, ptr %25, align 4, !tbaa !11
  %42 = sext i32 %41 to i64
  %43 = getelementptr inbounds ptr, ptr %40, i64 %42
  %44 = load ptr, ptr %43, align 8, !tbaa !9
  %45 = load i32, ptr %24, align 4, !tbaa !11
  %46 = mul nsw i32 2, %45
  %47 = sext i32 %46 to i64
  %48 = getelementptr inbounds i8, ptr %44, i64 %47
  %49 = load i16, ptr %48, align 2, !tbaa !91
  %50 = zext i16 %49 to i32
  %51 = load ptr, ptr %16, align 8, !tbaa !53
  %52 = load i32, ptr %25, align 4, !tbaa !11
  %53 = sext i32 %52 to i64
  %54 = getelementptr inbounds i32, ptr %51, i64 %53
  %55 = load i32, ptr %54, align 4, !tbaa !11
  %56 = mul nsw i32 %50, %55
  %57 = load i32, ptr %26, align 4, !tbaa !11
  %58 = add nsw i32 %57, %56
  store i32 %58, ptr %26, align 4, !tbaa !11
  br label %59

59:                                               ; preds = %39
  %60 = load i32, ptr %25, align 4, !tbaa !11
  %61 = add nsw i32 %60, 1
  store i32 %61, ptr %25, align 4, !tbaa !11
  br label %33, !llvm.loop !116

62:                                               ; preds = %33
  %63 = load i32, ptr %26, align 4, !tbaa !11
  %64 = sitofp i32 %63 to float
  %65 = load float, ptr %14, align 4, !tbaa !52
  %66 = load float, ptr %15, align 4, !tbaa !52
  %67 = call nsz float @llvm.fmuladd.f32(float %64, float %65, float %66)
  %68 = fadd nsz float %67, 5.000000e-01
  %69 = fptosi float %68 to i32
  store i32 %69, ptr %26, align 4, !tbaa !11
  %70 = load i32, ptr %26, align 4, !tbaa !11
  %71 = load i32, ptr %18, align 4, !tbaa !11
  %72 = call i32 @av_clip_c(i32 noundef %70, i32 noundef 0, i32 noundef %71) #12
  %73 = trunc i32 %72 to i16
  %74 = load ptr, ptr %23, align 8, !tbaa !114
  %75 = load i32, ptr %24, align 4, !tbaa !11
  %76 = sext i32 %75 to i64
  %77 = getelementptr inbounds i16, ptr %74, i64 %76
  store i16 %73, ptr %77, align 2, !tbaa !117
  call void @llvm.lifetime.end.p0(i64 4, ptr %26) #10
  call void @llvm.lifetime.end.p0(i64 4, ptr %25) #10
  br label %78

78:                                               ; preds = %62
  %79 = load i32, ptr %24, align 4, !tbaa !11
  %80 = add nsw i32 %79, 1
  store i32 %80, ptr %24, align 4, !tbaa !11
  br label %28, !llvm.loop !119

81:                                               ; preds = %28
  call void @llvm.lifetime.end.p0(i64 4, ptr %24) #10
  call void @llvm.lifetime.end.p0(i64 8, ptr %23) #10
  ret void
}