; Function Attrs: nofree norecurse nosync nounwind memory(read, argmem: readwrite, inaccessiblemem: none) uwtable
define internal void @filter16_row(ptr noundef writeonly captures(none) %0, i32 noundef %1, float noundef %2, float noundef %3, ptr noundef readonly captures(none) %4, ptr noundef readonly captures(none) %5, i32 noundef %6, i32 noundef %7, i32 %8, i32 %9, i32 %10) #6 {
  %12 = icmp sgt i32 %1, 0
  br i1 %12, label %.preheader.lr.ph, label %._crit_edge25

.preheader.lr.ph:                                 ; preds = %11
  %.not21 = icmp slt i32 %7, 0
  br i1 %.not21, label %.preheader.lr.ph.split.us, label %.preheader.preheader

.preheader.preheader:                             ; preds = %.preheader.lr.ph
  %13 = shl nuw i32 %7, 1
  %smax = tail call i32 @llvm.smax.i32(i32 %13, i32 0)
  %14 = or disjoint i32 %smax, 1
  %wide.trip.count31 = zext nneg i32 %1 to i64
  %wide.trip.count = zext nneg i32 %14 to i64
  br label %.preheader

.preheader.lr.ph.split.us:                        ; preds = %.preheader.lr.ph
  %15 = tail call nsz float @llvm.fmuladd.f32(float %2, float 0.000000e+00, float %3)
  %16 = fadd nsz float %15, 5.000000e-01
  %17 = fptosi float %16 to i32
  %18 = icmp slt i32 %17, 0
  %..i.us = tail call i32 @llvm.smin.i32(i32 %6, i32 %17)
  %19 = trunc i32 %..i.us to i16
  %20 = select i1 %18, i16 0, i16 %19
  %wide.trip.count36 = zext nneg i32 %1 to i64
  br label %.preheader.us

.preheader.us:                                    ; preds = %.preheader.us, %.preheader.lr.ph.split.us
  %indvars.iv33 = phi i64 [ %indvars.iv.next34, %.preheader.us ], [ 0, %.preheader.lr.ph.split.us ]
  %21 = getelementptr inbounds nuw i16, ptr %0, i64 %indvars.iv33
  store i16 %20, ptr %21, align 2, !tbaa !103
  %indvars.iv.next34 = add nuw nsw i64 %indvars.iv33, 1
  %exitcond37.not = icmp eq i64 %indvars.iv.next34, %wide.trip.count36
  br i1 %exitcond37.not, label %._crit_edge25, label %.preheader.us, !llvm.loop !105

.preheader:                                       ; preds = %.preheader.preheader, %._crit_edge
  %indvars.iv28 = phi i64 [ 0, %.preheader.preheader ], [ %indvars.iv.next29, %._crit_edge ]
  %22 = shl nuw nsw i64 %indvars.iv28, 1
  br label %23

23:                                               ; preds = %.preheader, %23
  %indvars.iv = phi i64 [ 0, %.preheader ], [ %indvars.iv.next, %23 ]
  %.023 = phi i32 [ 0, %.preheader ], [ %32, %23 ]
  %24 = getelementptr inbounds nuw ptr, ptr %5, i64 %indvars.iv
  %25 = load ptr, ptr %24, align 8, !tbaa !46
  %26 = getelementptr inbounds nuw i8, ptr %25, i64 %22
  %27 = load i16, ptr %26, align 2, !tbaa !82
  %28 = zext i16 %27 to i32
  %29 = getelementptr inbounds nuw i32, ptr %4, i64 %indvars.iv
  %30 = load i32, ptr %29, align 4, !tbaa !39
  %31 = mul nsw i32 %30, %28
  %32 = add nsw i32 %31, %.023
  %indvars.iv.next = add nuw nsw i64 %indvars.iv, 1
  %exitcond.not = icmp eq i64 %indvars.iv.next, %wide.trip.count
  br i1 %exitcond.not, label %._crit_edge, label %23, !llvm.loop !106

._crit_edge:                                      ; preds = %23
  %33 = sitofp i32 %32 to float
  %34 = tail call nsz float @llvm.fmuladd.f32(float %33, float %2, float %3)
  %35 = fadd nsz float %34, 5.000000e-01
  %36 = fptosi float %35 to i32
  %37 = icmp slt i32 %36, 0
  %..i = tail call i32 @llvm.smin.i32(i32 %6, i32 %36)
  %38 = trunc i32 %..i to i16
  %39 = select i1 %37, i16 0, i16 %38
  %40 = getelementptr inbounds nuw i16, ptr %0, i64 %indvars.iv28
  store i16 %39, ptr %40, align 2, !tbaa !103
  %indvars.iv.next29 = add nuw nsw i64 %indvars.iv28, 1
  %exitcond32.not = icmp eq i64 %indvars.iv.next29, %wide.trip.count31
  br i1 %exitcond32.not, label %._crit_edge25, label %.preheader, !llvm.loop !105

._crit_edge25:                                    ; preds = %._crit_edge, %.preheader.us, %11
  ret void
}